target datalayout = "e-m:e-p270:32:32-p271:32:32-p272:64:64-i64:64-i128:128-f80:128-n8:16:32:64-S128"
target triple = "x86_64-pc-linux-gnu"

%struct.reftable_flock = type { ptr, i32, ptr }

; Function Attrs: nounwind uwtable
define dso_local i32 @flock_commit(ptr noundef %0) #0 {
  %2 = alloca i32, align 4
  %3 = alloca ptr, align 8
  %4 = alloca ptr, align 8
  %5 = alloca i32, align 4
  %6 = alloca i32, align 4
  %7 = alloca %struct.reftable_flock, align 8
  store ptr %0, ptr %3, align 8, !tbaa !29
  call void @llvm.lifetime.start.p0(i64 8, ptr %4) #7
  %8 = load ptr, ptr %3, align 8, !tbaa !29
  %9 = getelementptr inbounds nuw %struct.reftable_flock, ptr %8, i32 0, i32 2
  %10 = load ptr, ptr %9, align 8, !tbaa !37
  store ptr %10, ptr %4, align 8, !tbaa !32
  call void @llvm.lifetime.start.p0(i64 4, ptr %5) #7
  %11 = load ptr, ptr %4, align 8, !tbaa !32
  %12 = icmp ne ptr %11, null
  br i1 %12, label %14, label %13

13:                                               ; preds = %1
  store i32 -6, ptr %2, align 4
  store i32 1, ptr %6, align 4
  br label %24

14:                                               ; preds = %1
  %15 = load ptr, ptr %4, align 8, !tbaa !32
  %16 = call i32 @commit_lock_file(ptr noundef %15)
  store i32 %16, ptr %5, align 4, !tbaa !26
  %17 = load ptr, ptr %4, align 8, !tbaa !32
  call void @reftable_free(ptr noundef %17)
  %18 = load ptr, ptr %3, align 8, !tbaa !29
  call void @llvm.memset.p0.i64(ptr align 8 %7, i8 0, i64 24, i1 false)
  %19 = getelementptr inbounds nuw %struct.reftable_flock, ptr %7, i32 0, i32 1
  store i32 -1, ptr %19, align 8, !tbaa !34
  call void @llvm.memcpy.p0.p0.i64(ptr align 8 %18, ptr align 8 %7, i64 24, i1 false), !tbaa.struct !27
  %20 = load i32, ptr %5, align 4, !tbaa !26
  %21 = icmp slt i32 %20, 0
  br i1 %21, label %22, label %23

22:                                               ; preds = %14
  store i32 -2, ptr %2, align 4
  store i32 1, ptr %6, align 4
  br label %24

23:                                               ; preds = %14
  store i32 0, ptr %2, align 4
  store i32 1, ptr %6, align 4
  br label %24

24:                                               ; preds = %23, %22, %13
  call void @llvm.lifetime.end.p0(i64 4, ptr %5) #7
  call void @llvm.lifetime.end.p0(i64 8, ptr %4) #7
  %25 = load i32, ptr %2, align 4
  ret i32 %25
}