; Function Attrs: nounwind uwtable
define dso_local range(i32 -6, 1) i32 @flock_commit(ptr noundef captures(none) %0) local_unnamed_addr #0 {
  %2 = getelementptr inbounds nuw i8, ptr %0, i64 16
  %3 = load ptr, ptr %2, align 8, !tbaa !30
  %.not = icmp eq ptr %3, null
  br i1 %.not, label %7, label %4

4:                                                ; preds = %1
  %5 = tail call i32 @commit_lock_file(ptr noundef nonnull %3) #5
  tail call void @reftable_free(ptr noundef nonnull %3) #5
  store ptr null, ptr %0, align 8, !tbaa !23
  %.sroa.2.0..sroa_idx = getelementptr inbounds nuw i8, ptr %0, i64 8
  store i32 -1, ptr %.sroa.2.0..sroa_idx, align 8, !tbaa !24
  %.sroa.3.0..sroa_idx = getelementptr inbounds nuw i8, ptr %0, i64 12
  tail call void @llvm.memset.p0.i64(ptr noundef nonnull align 4 dereferenceable(12) %.sroa.3.0..sroa_idx, i8 0, i64 12, i1 false)
  %6 = icmp slt i32 %5, 0
  %. = select i1 %6, i32 -2, i32 0
  br label %7

7:                                                ; preds = %4, %1
  %.0 = phi i32 [ -6, %1 ], [ %., %4 ]
  ret i32 %.0
}